target datalayout = "e-m:e-p270:32:32-p271:32:32-p272:64:64-i64:64-i128:128-f80:128-n8:16:32:64-S128"
target triple = "x86_64-pc-linux-gnu"

%struct.expert_field = type { i32, i32 }
%struct._packet_info = type { ptr, ptr, i32, i32, %struct.nstime_t, %struct.nstime_t, %struct.nstime_t, i8, ptr, ptr, ptr, ptr, %struct._address, %struct._address, %struct._address, %struct._address, %struct._address, %struct._address, i32, ptr, i8, [3 x i8], %struct.anon.7, i32, i32, i32, i32, ptr, i8, ptr, ptr, i16, i16, i32, i32, i16, i32, i32, ptr, ptr, ptr, i8, i8, i16, i16, i16, i32, i16, i16, ptr, ptr, ptr, ptr, ptr, i32, i32 }
%struct.nstime_t = type { i64, i32 }
%struct._address = type { i32, i32, ptr, ptr }
%struct.anon.7 = type { i8, [3 x i8] }

@syntax_table = internal global ptr null, align 8
@ber_syntax_dissector_table = internal global ptr null, align 8
@ei_ber_no_oid = internal global %struct.expert_field zeroinitializer, align 4
@ei_ber_syntax_not_implemented = internal global %struct.expert_field zeroinitializer, align 4
@.str.4 = private unnamed_addr constant [102 x i8] c"BER: Dissector for syntax:%s not implemented. Contact Wireshark developers if you want this supported\00", align 1
@decode_unexpected = internal global i8 0, align 1
@ett_ber_unknown = internal global i32 0, align 4
@.str.276 = private unnamed_addr constant [4 x i8] c"BER\00", align 1
@.str.382 = private unnamed_addr constant [18 x i8] c"BER encoded value\00", align 1
@.str.383 = private unnamed_addr constant [12 x i8] c"Unknown BER\00", align 1
@.str.384 = private unnamed_addr constant [14 x i8] c"Decoded as %s\00", align 1
@.str.385 = private unnamed_addr constant [58 x i8] c"BER Error: No syntax supplied to call_ber_syntax_callback\00", align 1

; Function Attrs: null_pointer_is_valid sspstrong uwtable
define internal ptr @get_ber_oid_syntax(ptr noundef %0) #0 {
  %2 = alloca ptr, align 8
  store ptr %0, ptr %2, align 8
  %3 = load ptr, ptr @syntax_table, align 8
  %4 = load ptr, ptr %2, align 8
  %5 = call ptr @g_hash_table_lookup(ptr noundef %3, ptr noundef %4)
  ret ptr %5
}

; Function Attrs: null_pointer_is_valid sspstrong uwtable
define internal i32 @call_ber_syntax_callback(ptr noundef %0, ptr noundef %1, i32 noundef %2, ptr noundef %3, ptr noundef %4) #0 {
  %6 = alloca ptr, align 8
  %7 = alloca ptr, align 8
  %8 = alloca i32, align 4
  %9 = alloca ptr, align 8
  %10 = alloca ptr, align 8
  %11 = alloca ptr, align 8
  %12 = alloca i32, align 4
  %13 = alloca ptr, align 8
  %14 = alloca ptr, align 8
  store ptr %0, ptr %6, align 8
  store ptr %1, ptr %7, align 8
  store i32 %2, ptr %8, align 4
  store ptr %3, ptr %9, align 8
  store ptr %4, ptr %10, align 8
  call void @llvm.lifetime.start.p0(i64 8, ptr %11) #12
  call void @llvm.lifetime.start.p0(i64 4, ptr %12) #12
  store i32 0, ptr %12, align 4
  %15 = load ptr, ptr %7, align 8
  %16 = load i32, ptr %8, align 4
  %17 = call ptr @tvb_new_subset_remaining(ptr noundef %15, i32 noundef %16)
  store ptr %17, ptr %11, align 8
  %18 = load ptr, ptr %6, align 8
  %19 = icmp eq ptr %18, null
  br i1 %19, label %28, label %20

20:                                               ; preds = %5
  %21 = load ptr, ptr @ber_syntax_dissector_table, align 8
  %22 = load ptr, ptr %6, align 8
  %23 = load ptr, ptr %11, align 8
  %24 = load ptr, ptr %9, align 8
  %25 = load ptr, ptr %10, align 8
  %26 = call i32 @dissector_try_string_with_data(ptr noundef %21, ptr noundef %22, ptr noundef %23, ptr noundef %24, ptr noundef %25, i1 noundef zeroext true, ptr noundef null)
  store i32 %26, ptr %12, align 4
  %27 = icmp eq i32 %26, 0
  br i1 %27, label %28, label %63

28:                                               ; preds = %20, %5
  call void @llvm.lifetime.start.p0(i64 8, ptr %13) #12
  store ptr null, ptr %13, align 8
  %29 = load ptr, ptr %6, align 8
  %30 = icmp eq ptr %29, null
  br i1 %30, label %31, label %39

31:                                               ; preds = %28
  %32 = load ptr, ptr %10, align 8
  %33 = load ptr, ptr %9, align 8
  %34 = load ptr, ptr %11, align 8
  %35 = load ptr, ptr %7, align 8
  %36 = load i32, ptr %8, align 4
  %37 = call i32 @tvb_reported_length_remaining(ptr noundef %35, i32 noundef %36)
  %38 = call ptr (ptr, ptr, ptr, ptr, i32, i32, ptr, ...) @proto_tree_add_expert_format(ptr noundef %32, ptr noundef %33, ptr noundef @ei_ber_no_oid, ptr noundef %34, i32 noundef 0, i32 noundef %37, ptr noundef @.str.385)
  store ptr %38, ptr %13, align 8
  br label %48

39:                                               ; preds = %28
  %40 = load ptr, ptr %10, align 8
  %41 = load ptr, ptr %9, align 8
  %42 = load ptr, ptr %11, align 8
  %43 = load ptr, ptr %7, align 8
  %44 = load i32, ptr %8, align 4
  %45 = call i32 @tvb_reported_length_remaining(ptr noundef %43, i32 noundef %44)
  %46 = load ptr, ptr %6, align 8
  %47 = call ptr (ptr, ptr, ptr, ptr, i32, i32, ptr, ...) @proto_tree_add_expert_format(ptr noundef %40, ptr noundef %41, ptr noundef @ei_ber_syntax_not_implemented, ptr noundef %42, i32 noundef 0, i32 noundef %45, ptr noundef @.str.4, ptr noundef %46)
  store ptr %47, ptr %13, align 8
  br label %48

48:                                               ; preds = %39, %31
  %49 = load i8, ptr @decode_unexpected, align 1, !range !6, !noundef !7
  %50 = trunc i8 %49 to i1
  br i1 %50, label %51, label %59

51:                                               ; preds = %48
  call void @llvm.lifetime.start.p0(i64 8, ptr %14) #12
  %52 = load ptr, ptr %13, align 8
  %53 = load i32, ptr @ett_ber_unknown, align 4
  %54 = call ptr @proto_item_add_subtree(ptr noundef %52, i32 noundef %53)
  store ptr %54, ptr %14, align 8
  %55 = load ptr, ptr %9, align 8
  %56 = load ptr, ptr %11, align 8
  %57 = load ptr, ptr %14, align 8
  %58 = call i32 @dissect_unknown_ber(ptr noundef %55, ptr noundef %56, i32 noundef 0, ptr noundef %57)
  call void @llvm.lifetime.end.p0(i64 8, ptr %14) #12
  br label %59

59:                                               ; preds = %51, %48
  %60 = load ptr, ptr %7, align 8
  %61 = load i32, ptr %8, align 4
  %62 = call i32 @tvb_reported_length_remaining(ptr noundef %60, i32 noundef %61)
  store i32 %62, ptr %12, align 4
  call void @llvm.lifetime.end.p0(i64 8, ptr %13) #12
  br label %63

63:                                               ; preds = %59, %20
  %64 = load i32, ptr %12, align 4
  %65 = load i32, ptr %8, align 4
  %66 = add i32 %65, %64
  store i32 %66, ptr %8, align 4
  %67 = load i32, ptr %8, align 4
  call void @llvm.lifetime.end.p0(i64 4, ptr %12) #12
  call void @llvm.lifetime.end.p0(i64 8, ptr %11) #12
  ret i32 %67
}

; Function Attrs: null_pointer_is_valid sspstrong uwtable
define i32 @dissect_unknown_ber(ptr noundef %0, ptr noundef %1, i32 noundef %2, ptr noundef %3) #0 {
  %5 = alloca ptr, align 8
  %6 = alloca ptr, align 8
  %7 = alloca i32, align 4
  %8 = alloca ptr, align 8
  store ptr %0, ptr %5, align 8
  store ptr %1, ptr %6, align 8
  store i32 %2, ptr %7, align 4
  store ptr %3, ptr %8, align 8
  %9 = load ptr, ptr %5, align 8
  %10 = load ptr, ptr %6, align 8
  %11 = load i32, ptr %7, align 4
  %12 = load ptr, ptr %8, align 8
  %13 = call i32 @try_dissect_unknown_ber(ptr noundef %9, ptr noundef %10, i32 noundef %11, ptr noundef %12, i32 noundef 1)
  ret i32 %13
}

; Function Attrs: null_pointer_is_valid sspstrong uwtable
define internal i32 @dissect_ber_common(ptr noundef %0, ptr noundef %1, ptr noundef %2, ptr noundef %3) #0 {
  %5 = alloca ptr, align 8
  %6 = alloca ptr, align 8
  %7 = alloca ptr, align 8
  %8 = alloca ptr, align 8
  %9 = alloca ptr, align 8
  %10 = alloca i32, align 4
  store ptr %0, ptr %5, align 8
  store ptr %1, ptr %6, align 8
  store ptr %2, ptr %7, align 8
  store ptr %3, ptr %8, align 8
  call void @llvm.lifetime.start.p0(i64 8, ptr %9) #12
  call void @llvm.lifetime.start.p0(i64 4, ptr %10) #12
  %11 = load ptr, ptr %6, align 8
  %12 = getelementptr inbounds nuw %struct._packet_info, ptr %11, i32 0, i32 1
  %13 = load ptr, ptr %12, align 8
  call void @col_set_str(ptr noundef %13, i32 noundef 35, ptr noundef @.str.276)
  %14 = load ptr, ptr %6, align 8
  %15 = getelementptr inbounds nuw %struct._packet_info, ptr %14, i32 0, i32 1
  %16 = load ptr, ptr %15, align 8
  call void @col_set_str(ptr noundef %16, i32 noundef 37, ptr noundef @.str.382)
  %17 = load ptr, ptr %8, align 8
  %18 = icmp ne ptr %17, null
  br i1 %18, label %27, label %19

19:                                               ; preds = %4
  %20 = load ptr, ptr %6, align 8
  %21 = getelementptr inbounds nuw %struct._packet_info, ptr %20, i32 0, i32 1
  %22 = load ptr, ptr %21, align 8
  call void @col_set_str(ptr noundef %22, i32 noundef 25, ptr noundef @.str.383)
  %23 = load ptr, ptr %6, align 8
  %24 = load ptr, ptr %5, align 8
  %25 = load ptr, ptr %7, align 8
  %26 = call i32 @dissect_unknown_ber(ptr noundef %23, ptr noundef %24, i32 noundef 0, ptr noundef %25)
  store i32 %26, ptr %10, align 4
  br label %46

27:                                               ; preds = %4
  %28 = load ptr, ptr %8, align 8
  %29 = load ptr, ptr %5, align 8
  %30 = load ptr, ptr %6, align 8
  %31 = load ptr, ptr %7, align 8
  %32 = call i32 @call_ber_syntax_callback(ptr noundef %28, ptr noundef %29, i32 noundef 0, ptr noundef %30, ptr noundef %31)
  store i32 %32, ptr %10, align 4
  %33 = load ptr, ptr %8, align 8
  %34 = call ptr @get_ber_oid_syntax(ptr noundef %33)
  store ptr %34, ptr %9, align 8
  %35 = load ptr, ptr %6, align 8
  %36 = getelementptr inbounds nuw %struct._packet_info, ptr %35, i32 0, i32 1
  %37 = load ptr, ptr %36, align 8
  %38 = load ptr, ptr %9, align 8
  %39 = icmp ne ptr %38, null
  br i1 %39, label %40, label %42

40:                                               ; preds = %27
  %41 = load ptr, ptr %9, align 8
  br label %44

42:                                               ; preds = %27
  %43 = load ptr, ptr %8, align 8
  br label %44

44:                                               ; preds = %42, %40
  %45 = phi ptr [ %41, %40 ], [ %43, %42 ]
  call void (ptr, i32, ptr, ...) @col_add_fstr(ptr noundef %37, i32 noundef 25, ptr noundef @.str.384, ptr noundef %45)
  br label %46

46:                                               ; preds = %44, %19
  %47 = load i32, ptr %10, align 4
  call void @llvm.lifetime.end.p0(i64 4, ptr %10) #12
  call void @llvm.lifetime.end.p0(i64 8, ptr %9) #12
  ret i32 %47
}