; Function Attrs: null_pointer_is_valid sspstrong uwtable
define internal fastcc i32 @dissect_ber_common(ptr noundef %0, ptr noundef %1, ptr noundef %2, ptr noundef %3) unnamed_addr #0 {
  %5 = getelementptr inbounds nuw i8, ptr %1, i64 8
  %6 = load ptr, ptr %5, align 8
  tail call void @col_set_str(ptr noundef %6, i32 noundef 35, ptr noundef nonnull @.str.276)
  %7 = load ptr, ptr %5, align 8
  tail call void @col_set_str(ptr noundef %7, i32 noundef 37, ptr noundef nonnull @.str.382)
  %.not = icmp eq ptr %3, null
  br i1 %.not, label %8, label %11

8:                                                ; preds = %4
  %9 = load ptr, ptr %5, align 8
  tail call void @col_set_str(ptr noundef %9, i32 noundef 25, ptr noundef nonnull @.str.383)
  %10 = tail call fastcc i32 @try_dissect_unknown_ber(ptr noundef %1, ptr noundef %0, i32 noundef 0, ptr noundef %2, i32 noundef 1)
  br label %31

11:                                               ; preds = %4
  %12 = tail call ptr @tvb_new_subset_remaining(ptr noundef %0, i32 noundef 0)
  %13 = load ptr, ptr @ber_syntax_dissector_table, align 8
  %14 = tail call i32 @dissector_try_string_with_data(ptr noundef %13, ptr noundef nonnull %3, ptr noundef %12, ptr noundef %1, ptr noundef %2, i1 noundef zeroext true, ptr noundef null)
  %15 = icmp eq i32 %14, 0
  br i1 %15, label %16, label %call_ber_syntax_callback.exit

16:                                               ; preds = %11
  %17 = tail call i32 @tvb_reported_length_remaining(ptr noundef %0, i32 noundef 0)
  %18 = tail call ptr (ptr, ptr, ptr, ptr, i32, i32, ptr, ...) @proto_tree_add_expert_format(ptr noundef %2, ptr noundef %1, ptr noundef nonnull @ei_ber_syntax_not_implemented, ptr noundef %12, i32 noundef 0, i32 noundef %17, ptr noundef nonnull @.str.4, ptr noundef nonnull %3)
  %19 = load i8, ptr @decode_unexpected, align 1, !range !8, !noundef !9
  %20 = trunc nuw i8 %19 to i1
  br i1 %20, label %21, label %25

21:                                               ; preds = %16
  %22 = load i32, ptr @ett_ber_unknown, align 4
  %23 = tail call ptr @proto_item_add_subtree(ptr noundef %18, i32 noundef %22)
  %24 = tail call fastcc i32 @try_dissect_unknown_ber(ptr noundef %1, ptr noundef %12, i32 noundef 0, ptr noundef %23, i32 noundef 1)
  br label %25

25:                                               ; preds = %21, %16
  %26 = tail call i32 @tvb_reported_length_remaining(ptr noundef %0, i32 noundef 0)
  br label %call_ber_syntax_callback.exit

call_ber_syntax_callback.exit:                    ; preds = %11, %25
  %.027.i = phi i32 [ %26, %25 ], [ %14, %11 ]
  %27 = load ptr, ptr @syntax_table, align 8
  %28 = tail call ptr @g_hash_table_lookup(ptr noundef %27, ptr noundef nonnull %3)
  %29 = load ptr, ptr %5, align 8
  %.not17 = icmp eq ptr %28, null
  %30 = select i1 %.not17, ptr %3, ptr %28
  tail call void (ptr, i32, ptr, ...) @col_add_fstr(ptr noundef %29, i32 noundef 25, ptr noundef nonnull @.str.384, ptr noundef nonnull %30)
  br label %31

31:                                               ; preds = %call_ber_syntax_callback.exit, %8
  %.0 = phi i32 [ %.027.i, %call_ber_syntax_callback.exit ], [ %10, %8 ]
  ret i32 %.0
}